; Function Attrs: nounwind uwtable
define noalias noundef ptr @Abc_NtkDelayTraceSlackStart(ptr noundef %0) local_unnamed_addr #3 {
  %2 = getelementptr i8, ptr %0, i64 32
  %.val21 = load ptr, ptr %2, align 8
  %3 = getelementptr i8, ptr %.val21, i64 4
  %.val21.val = load i32, ptr %3, align 4
  %4 = tail call i32 @Abc_NtkGetTotalFanins(ptr noundef %0) #22
  %5 = add nsw i32 %4, %.val21.val
  %6 = tail call noalias dereferenceable_or_null(16) ptr @malloc(i64 noundef 16) #20
  %7 = add i32 %5, -1
  %or.cond.i = icmp ult i32 %7, 15
  %spec.store.select.i = select i1 %or.cond.i, i32 16, i32 %5
  %8 = getelementptr inbounds nuw i8, ptr %6, i64 4
  store i32 0, ptr %8, align 4
  store i32 %spec.store.select.i, ptr %6, align 8
  %.not.i = icmp eq i32 %spec.store.select.i, 0
  br i1 %.not.i, label %Vec_IntAlloc.exit.thread, label %Vec_IntAlloc.exit

Vec_IntAlloc.exit:                                ; preds = %1
  %9 = sext i32 %spec.store.select.i to i64
  %10 = shl nsw i64 %9, 2
  %11 = tail call noalias ptr @malloc(i64 noundef %10) #20
  %12 = getelementptr inbounds nuw i8, ptr %6, i64 8
  store ptr %11, ptr %12, align 8
  %.val20 = load ptr, ptr %2, align 8
  %13 = getelementptr i8, ptr %.val20, i64 4
  %.val20.val = load i32, ptr %13, align 4
  %.not.i.i = icmp slt i32 %spec.store.select.i, %.val20.val
  br i1 %.not.i.i, label %18, label %Vec_IntGrow.exit.i

Vec_IntAlloc.exit.thread:                         ; preds = %1
  %14 = getelementptr inbounds nuw i8, ptr %6, i64 8
  store ptr null, ptr %14, align 8
  %.val2029 = load ptr, ptr %2, align 8
  %15 = getelementptr i8, ptr %.val2029, i64 4
  %.val20.val30 = load i32, ptr %15, align 4
  %.not.i.i31 = icmp sgt i32 %.val20.val30, 0
  br i1 %.not.i.i31, label %.thread, label %Vec_IntFill.exit

.thread:                                          ; preds = %Vec_IntAlloc.exit.thread
  %16 = zext nneg i32 %.val20.val30 to i64
  %17 = shl nuw nsw i64 %16, 2
  br label %23

18:                                               ; preds = %Vec_IntAlloc.exit
  %.not9.i.i = icmp eq ptr %11, null
  %19 = sext i32 %.val20.val to i64
  %20 = shl nsw i64 %19, 2
  br i1 %.not9.i.i, label %23, label %21

21:                                               ; preds = %18
  %22 = tail call ptr @realloc(ptr noundef nonnull %11, i64 noundef %20) #19
  br label %27

23:                                               ; preds = %.thread, %18
  %24 = phi i64 [ %17, %.thread ], [ %20, %18 ]
  %25 = phi ptr [ %14, %.thread ], [ %12, %18 ]
  %.val20.val3337 = phi i32 [ %.val20.val30, %.thread ], [ %.val20.val, %18 ]
  %26 = tail call noalias ptr @malloc(i64 noundef %24) #20
  br label %27

27:                                               ; preds = %23, %21
  %28 = phi ptr [ %12, %21 ], [ %25, %23 ]
  %.val20.val3336 = phi i32 [ %.val20.val, %21 ], [ %.val20.val3337, %23 ]
  %29 = phi ptr [ %22, %21 ], [ %26, %23 ]
  store ptr %29, ptr %28, align 8
  store i32 %.val20.val3336, ptr %6, align 8
  br label %Vec_IntGrow.exit.i

Vec_IntGrow.exit.i:                               ; preds = %27, %Vec_IntAlloc.exit
  %.val20.val32 = phi i32 [ %.val20.val3336, %27 ], [ %.val20.val, %Vec_IntAlloc.exit ]
  %30 = phi ptr [ %28, %27 ], [ %12, %Vec_IntAlloc.exit ]
  %31 = icmp sgt i32 %.val20.val32, 0
  br i1 %31, label %.lr.ph.i, label %Vec_IntFill.exit

.lr.ph.i:                                         ; preds = %Vec_IntGrow.exit.i
  %wide.trip.count.i = zext nneg i32 %.val20.val32 to i64
  br label %32

32:                                               ; preds = %32, %.lr.ph.i
  %indvars.iv.i = phi i64 [ 0, %.lr.ph.i ], [ %indvars.iv.next.i, %32 ]
  %33 = load ptr, ptr %30, align 8
  %34 = getelementptr inbounds nuw i32, ptr %33, i64 %indvars.iv.i
  store i32 -1, ptr %34, align 4
  %indvars.iv.next.i = add nuw nsw i64 %indvars.iv.i, 1
  %exitcond.not.i = icmp eq i64 %indvars.iv.next.i, %wide.trip.count.i
  br i1 %exitcond.not.i, label %Vec_IntFill.exit, label %32, !llvm.loop !34

Vec_IntFill.exit:                                 ; preds = %32, %Vec_IntAlloc.exit.thread, %Vec_IntGrow.exit.i
  %35 = phi ptr [ %30, %Vec_IntGrow.exit.i ], [ %14, %Vec_IntAlloc.exit.thread ], [ %30, %32 ]
  %.val20.val3239 = phi i32 [ %.val20.val32, %Vec_IntGrow.exit.i ], [ %.val20.val30, %Vec_IntAlloc.exit.thread ], [ %.val20.val32, %32 ]
  store i32 %.val20.val3239, ptr %8, align 4
  %36 = load ptr, ptr %2, align 8
  %37 = getelementptr i8, ptr %36, i64 4
  %.val42 = load i32, ptr %37, align 4
  %38 = icmp sgt i32 %.val42, 0
  br i1 %38, label %.lr.ph44, label %.critedge

.lr.ph44:                                         ; preds = %Vec_IntFill.exit, %.loopexit
  %indvars.iv = phi i64 [ %indvars.iv.next, %.loopexit ], [ 0, %Vec_IntFill.exit ]
  %39 = phi ptr [ %80, %.loopexit ], [ %36, %Vec_IntFill.exit ]
  %40 = getelementptr i8, ptr %39, i64 8
  %.val22.val = load ptr, ptr %40, align 8
  %41 = getelementptr inbounds nuw ptr, ptr %.val22.val, i64 %indvars.iv
  %42 = load ptr, ptr %41, align 8
  %43 = icmp eq ptr %42, null
  br i1 %43, label %.loopexit, label %44

44:                                               ; preds = %.lr.ph44
  %45 = getelementptr i8, ptr %42, i64 20
  %.val23 = load i32, ptr %45, align 4
  %46 = and i32 %.val23, 15
  %.not = icmp eq i32 %46, 7
  br i1 %.not, label %47, label %.loopexit

47:                                               ; preds = %44
  %.val25 = load i32, ptr %8, align 4
  %.val26 = load ptr, ptr %35, align 8
  %48 = getelementptr inbounds nuw i32, ptr %.val26, i64 %indvars.iv
  store i32 %.val25, ptr %48, align 4
  %49 = getelementptr i8, ptr %42, i64 28
  %.val2440 = load i32, ptr %49, align 4
  %50 = icmp sgt i32 %.val2440, 0
  br i1 %50, label %.lr.ph, label %.loopexit

.lr.ph:                                           ; preds = %47, %Vec_IntPush.exit
  %.041 = phi i32 [ %78, %Vec_IntPush.exit ], [ 0, %47 ]
  %51 = load i32, ptr %8, align 4
  %52 = load i32, ptr %6, align 8
  %53 = icmp eq i32 %51, %52
  br i1 %53, label %54, label %.Vec_IntGrow.exit10_crit_edge.i

.Vec_IntGrow.exit10_crit_edge.i:                  ; preds = %.lr.ph
  %.pre.i = load ptr, ptr %35, align 8
  br label %Vec_IntPush.exit

54:                                               ; preds = %.lr.ph
  %55 = icmp slt i32 %51, 16
  br i1 %55, label %56, label %63

56:                                               ; preds = %54
  %57 = load ptr, ptr %35, align 8
  %.not9.i.i27 = icmp eq ptr %57, null
  br i1 %.not9.i.i27, label %60, label %58

58:                                               ; preds = %56
  %59 = tail call dereferenceable_or_null(64) ptr @realloc(ptr noundef nonnull %57, i64 noundef 64) #19
  br label %Vec_IntGrow.exit.i28

60:                                               ; preds = %56
  %61 = tail call noalias dereferenceable_or_null(64) ptr @malloc(i64 noundef 64) #20
  br label %Vec_IntGrow.exit.i28

Vec_IntGrow.exit.i28:                             ; preds = %60, %58
  %62 = phi ptr [ %59, %58 ], [ %61, %60 ]
  store ptr %62, ptr %35, align 8
  store i32 16, ptr %6, align 8
  br label %Vec_IntPush.exit

63:                                               ; preds = %54
  %64 = shl nuw nsw i32 %51, 1
  %65 = load ptr, ptr %35, align 8
  %.not9.i9.i = icmp eq ptr %65, null
  %66 = zext nneg i32 %64 to i64
  %67 = shl nuw nsw i64 %66, 2
  br i1 %.not9.i9.i, label %70, label %68

68:                                               ; preds = %63
  %69 = tail call ptr @realloc(ptr noundef nonnull %65, i64 noundef %67) #19
  br label %72

70:                                               ; preds = %63
  %71 = tail call noalias ptr @malloc(i64 noundef %67) #20
  br label %72

72:                                               ; preds = %70, %68
  %73 = phi ptr [ %69, %68 ], [ %71, %70 ]
  store ptr %73, ptr %35, align 8
  store i32 %64, ptr %6, align 8
  br label %Vec_IntPush.exit

Vec_IntPush.exit:                                 ; preds = %.Vec_IntGrow.exit10_crit_edge.i, %Vec_IntGrow.exit.i28, %72
  %74 = phi ptr [ %.pre.i, %.Vec_IntGrow.exit10_crit_edge.i ], [ %73, %72 ], [ %62, %Vec_IntGrow.exit.i28 ]
  %75 = add nsw i32 %51, 1
  store i32 %75, ptr %8, align 4
  %76 = sext i32 %51 to i64
  %77 = getelementptr inbounds i32, ptr %74, i64 %76
  store i32 -1, ptr %77, align 4
  %78 = add nuw nsw i32 %.041, 1
  %.val24 = load i32, ptr %49, align 4
  %79 = icmp slt i32 %78, %.val24
  br i1 %79, label %.lr.ph, label %.loopexit, !llvm.loop !35

.loopexit:                                        ; preds = %Vec_IntPush.exit, %47, %44, %.lr.ph44
  %indvars.iv.next = add nuw nsw i64 %indvars.iv, 1
  %80 = load ptr, ptr %2, align 8
  %81 = getelementptr i8, ptr %80, i64 4
  %.val = load i32, ptr %81, align 4
  %82 = sext i32 %.val to i64
  %83 = icmp slt i64 %indvars.iv.next, %82
  br i1 %83, label %.lr.ph44, label %.critedge, !llvm.loop !36

.critedge:                                        ; preds = %.loopexit, %Vec_IntFill.exit
  ret ptr %6
}